; Function Attrs: inlinehint nounwind sspstrong uwtable
define internal void @gen_helper_atomic_xchgw_be(ptr noundef %0, ptr noundef %1, ptr noundef %2, ptr noundef %3, ptr noundef %4) #4 {
  %6 = load ptr, ptr @helper_info_atomic_xchgw_be, align 8
  %7 = tail call align 8 ptr @llvm.threadlocal.address.p0(ptr align 8 @tcg_ctx)
  %8 = load ptr, ptr %7, align 8
  %9 = ptrtoint ptr %0 to i64
  %10 = getelementptr inbounds nuw i8, ptr %8, i64 %9
  %11 = ptrtoint ptr %1 to i64
  %12 = getelementptr inbounds nuw i8, ptr %8, i64 %11
  %13 = ptrtoint ptr %2 to i64
  %14 = getelementptr inbounds nuw i8, ptr %8, i64 %13
  %15 = ptrtoint ptr %3 to i64
  %16 = getelementptr inbounds nuw i8, ptr %8, i64 %15
  %17 = ptrtoint ptr %4 to i64
  %18 = getelementptr inbounds nuw i8, ptr %8, i64 %17
  tail call void @tcg_gen_call4(ptr noundef %6, ptr noundef nonnull @helper_info_atomic_xchgw_be, ptr noundef %10, ptr noundef %12, ptr noundef %14, ptr noundef %16, ptr noundef %18) #6
  ret void
}